target datalayout = "e-m:e-p270:32:32-p271:32:32-p272:64:64-i64:64-i128:128-f80:128-n8:16:32:64-S128"
target triple = "x86_64-pc-linux-gnu"

%struct._tcm_permit_flags_t = type { i32 }
%"class.tbb::detail::r1::tcm_client" = type { %"class.tbb::detail::r1::pm_client", %struct._tcm_cpu_constraints_t, %struct._tcm_permit_request_t, ptr, %"class.tbb::detail::d1::mutex", ptr }
%"class.tbb::detail::r1::pm_client" = type { ptr, ptr, i32, i32 }
%struct._tcm_cpu_constraints_t = type { i32, i32, ptr, i32, i32, i32 }
%struct._tcm_permit_request_t = type { i32, i32, ptr, i32, i32, %struct._tcm_permit_flags_t, [4 x i8] }
%"class.tbb::detail::d1::mutex" = type { %"class.tbb::detail::d1::waitable_atomic" }
%"class.tbb::detail::d1::waitable_atomic" = type { %"struct.std::atomic" }
%"struct.std::atomic" = type { %"struct.std::__atomic_base" }
%"struct.std::__atomic_base" = type { i8 }

@_ZTVN3tbb6detail2r19pm_clientE = linkonce_odr unnamed_addr constant { [6 x ptr] } { [6 x ptr] [ptr null, ptr @_ZTIN3tbb6detail2r19pm_clientE, ptr @_ZN3tbb6detail2r19pm_clientD2Ev, ptr @_ZN3tbb6detail2r19pm_clientD0Ev, ptr @__cxa_pure_virtual, ptr @__cxa_pure_virtual] }, comdat, align 8
@.str.13 = private unnamed_addr constant [11 x i8] c"tbb::mutex\00", align 1
@.str.14 = private unnamed_addr constant [1 x i8] zeroinitializer, align 1

; Function Attrs: mustprogress nounwind sspstrong uwtable
define linkonce_odr void @_ZNSt13__atomic_baseIbEC2Eb(ptr noundef nonnull align 1 dereferenceable(1) %0, i1 noundef zeroext %1) unnamed_addr #5 comdat align 2 {
  %3 = alloca ptr, align 8
  %4 = alloca i8, align 1
  store ptr %0, ptr %3, align 8, !tbaa !135
  %5 = zext i1 %1 to i8
  store i8 %5, ptr %4, align 1, !tbaa !39
  %6 = load ptr, ptr %3, align 8
  %7 = getelementptr inbounds nuw %"struct.std::__atomic_base", ptr %6, i32 0, i32 0
  %8 = load i8, ptr %4, align 1, !tbaa !39, !range !40, !noundef !41
  %9 = trunc i8 %8 to i1
  %10 = zext i1 %9 to i8
  store i8 %10, ptr %7, align 1, !tbaa !137
  ret void
}

; Function Attrs: mustprogress nounwind sspstrong uwtable
define linkonce_odr void @_ZNSt6atomicIbEC2Eb(ptr noundef nonnull align 1 dereferenceable(1) %0, i1 noundef zeroext %1) unnamed_addr #5 comdat align 2 {
  %3 = alloca ptr, align 8
  %4 = alloca i8, align 1
  store ptr %0, ptr %3, align 8, !tbaa !133
  %5 = zext i1 %1 to i8
  store i8 %5, ptr %4, align 1, !tbaa !39
  %6 = load ptr, ptr %3, align 8
  %7 = getelementptr inbounds nuw %"struct.std::atomic", ptr %6, i32 0, i32 0
  %8 = load i8, ptr %4, align 1, !tbaa !39, !range !40, !noundef !41
  %9 = trunc i8 %8 to i1
  call void @_ZNSt13__atomic_baseIbEC2Eb(ptr noundef nonnull align 1 dereferenceable(1) %7, i1 noundef zeroext %9) #3
  ret void
}

; Function Attrs: inlinehint mustprogress nounwind sspstrong uwtable
define linkonce_odr void @_ZN3tbb6detail2d115create_itt_syncEPvPKcS4_(ptr noundef %0, ptr noundef %1, ptr noundef %2) #7 comdat {
  %4 = alloca ptr, align 8
  %5 = alloca ptr, align 8
  %6 = alloca ptr, align 8
  store ptr %0, ptr %4, align 8, !tbaa !8
  store ptr %1, ptr %5, align 8, !tbaa !131
  store ptr %2, ptr %6, align 8, !tbaa !131
  ret void
}

; Function Attrs: mustprogress nounwind sspstrong uwtable
define linkonce_odr void @_ZN3tbb6detail2d115waitable_atomicIbEC2Eb(ptr noundef nonnull align 1 dereferenceable(1) %0, i1 noundef zeroext %1) unnamed_addr #5 comdat align 2 {
  %3 = alloca ptr, align 8
  %4 = alloca i8, align 1
  store ptr %0, ptr %3, align 8, !tbaa !129
  %5 = zext i1 %1 to i8
  store i8 %5, ptr %4, align 1, !tbaa !39
  %6 = load ptr, ptr %3, align 8
  %7 = getelementptr inbounds nuw %"class.tbb::detail::d1::waitable_atomic", ptr %6, i32 0, i32 0
  %8 = load i8, ptr %4, align 1, !tbaa !39, !range !40, !noundef !41
  %9 = trunc i8 %8 to i1
  call void @_ZNSt6atomicIbEC2Eb(ptr noundef nonnull align 1 dereferenceable(1) %7, i1 noundef zeroext %9) #3
  ret void
}

; Function Attrs: mustprogress nounwind sspstrong uwtable
define linkonce_odr void @_ZN3tbb6detail2r19pm_clientD2Ev(ptr noundef nonnull align 8 dereferenceable(24) %0) unnamed_addr #5 comdat align 2 {
  %2 = alloca ptr, align 8
  store ptr %0, ptr %2, align 8, !tbaa !79
  ret void
}

; Function Attrs: mustprogress sspstrong uwtable
define linkonce_odr void @_ZN3tbb6detail2d15mutexC2Ev(ptr noundef nonnull align 1 dereferenceable(1) %0) unnamed_addr #4 comdat align 2 {
  %2 = alloca ptr, align 8
  store ptr %0, ptr %2, align 8, !tbaa !101
  %3 = load ptr, ptr %2, align 8
  %4 = getelementptr inbounds nuw %"class.tbb::detail::d1::mutex", ptr %3, i32 0, i32 0
  call void @_ZN3tbb6detail2d115waitable_atomicIbEC2Eb(ptr noundef nonnull align 1 dereferenceable(1) %4, i1 noundef zeroext false)
  call void @_ZN3tbb6detail2d115create_itt_syncEPvPKcS4_(ptr noundef %3, ptr noundef @.str.13, ptr noundef @.str.14)
  ret void
}

; Function Attrs: mustprogress nounwind sspstrong uwtable
define linkonce_odr void @_ZN3tbb6detail2r19pm_clientC2ERNS1_5arenaE(ptr noundef nonnull align 8 dereferenceable(24) %0, ptr noundef nonnull align 128 dereferenceable(768) %1) unnamed_addr #5 comdat align 2 {
  %3 = alloca ptr, align 8
  %4 = alloca ptr, align 8
  store ptr %0, ptr %3, align 8, !tbaa !79
  store ptr %1, ptr %4, align 8, !tbaa !66
  %5 = load ptr, ptr %3, align 8
  store ptr getelementptr inbounds inrange(-16, 32) ({ [6 x ptr] }, ptr @_ZTVN3tbb6detail2r19pm_clientE, i32 0, i32 0, i32 2), ptr %5, align 8, !tbaa !45
  %6 = getelementptr inbounds nuw %"class.tbb::detail::r1::pm_client", ptr %5, i32 0, i32 1
  %7 = load ptr, ptr %4, align 8, !tbaa !66
  store ptr %7, ptr %6, align 8, !tbaa !66
  %8 = getelementptr inbounds nuw %"class.tbb::detail::r1::pm_client", ptr %5, i32 0, i32 2
  store i32 0, ptr %8, align 8, !tbaa !128
  %9 = getelementptr inbounds nuw %"class.tbb::detail::r1::pm_client", ptr %5, i32 0, i32 3
  store i32 0, ptr %9, align 4, !tbaa !108
  ret void
}

; Function Attrs: mustprogress sspstrong uwtable
define linkonce_odr void @_ZN3tbb6detail2r110tcm_clientC2ERNS1_11tcm_adaptorERNS1_5arenaE(ptr noundef nonnull align 8 dereferenceable(112) %0, ptr noundef nonnull align 8 dereferenceable(24) %1, ptr noundef nonnull align 128 dereferenceable(768) %2) unnamed_addr #4 comdat align 2 personality ptr @__gxx_personality_v0 {
  %4 = alloca ptr, align 8
  %5 = alloca ptr, align 8
  %6 = alloca ptr, align 8
  %7 = alloca ptr, align 8
  %8 = alloca i32, align 4
  store ptr %0, ptr %4, align 8, !tbaa !9
  store ptr %1, ptr %5, align 8, !tbaa !44
  store ptr %2, ptr %6, align 8, !tbaa !66
  %9 = load ptr, ptr %4, align 8
  %10 = load ptr, ptr %6, align 8, !tbaa !66
  call void @_ZN3tbb6detail2r19pm_clientC2ERNS1_5arenaE(ptr noundef nonnull align 8 dereferenceable(24) %9, ptr noundef nonnull align 128 dereferenceable(768) %10)
  store ptr getelementptr inbounds inrange(-16, 32) ({ [6 x ptr] }, ptr @_ZTVN3tbb6detail2r110tcm_clientE, i32 0, i32 0, i32 2), ptr %9, align 8, !tbaa !45
  %11 = getelementptr inbounds nuw %"class.tbb::detail::r1::tcm_client", ptr %9, i32 0, i32 1
  %12 = getelementptr inbounds nuw %struct._tcm_cpu_constraints_t, ptr %11, i32 0, i32 0
  store i32 -1, ptr %12, align 8, !tbaa !67
  %13 = getelementptr inbounds nuw %struct._tcm_cpu_constraints_t, ptr %11, i32 0, i32 1
  store i32 -1, ptr %13, align 4, !tbaa !68
  %14 = getelementptr inbounds nuw %struct._tcm_cpu_constraints_t, ptr %11, i32 0, i32 2
  store ptr null, ptr %14, align 8, !tbaa !69
  %15 = getelementptr inbounds nuw %struct._tcm_cpu_constraints_t, ptr %11, i32 0, i32 3
  store i32 -1, ptr %15, align 8, !tbaa !70
  %16 = getelementptr inbounds nuw %struct._tcm_cpu_constraints_t, ptr %11, i32 0, i32 4
  store i32 -1, ptr %16, align 4, !tbaa !71
  %17 = getelementptr inbounds nuw %struct._tcm_cpu_constraints_t, ptr %11, i32 0, i32 5
  store i32 -1, ptr %17, align 8, !tbaa !72
  %18 = getelementptr inbounds nuw %"class.tbb::detail::r1::tcm_client", ptr %9, i32 0, i32 2
  %19 = getelementptr inbounds nuw %struct._tcm_permit_request_t, ptr %18, i32 0, i32 0
  store i32 -1, ptr %19, align 8, !tbaa !73
  %20 = getelementptr inbounds nuw %struct._tcm_permit_request_t, ptr %18, i32 0, i32 1
  store i32 -1, ptr %20, align 4, !tbaa !74
  %21 = getelementptr inbounds nuw %struct._tcm_permit_request_t, ptr %18, i32 0, i32 2
  store ptr null, ptr %21, align 8, !tbaa !75
  %22 = getelementptr inbounds nuw %struct._tcm_permit_request_t, ptr %18, i32 0, i32 3
  store i32 0, ptr %22, align 8, !tbaa !76
  %23 = getelementptr inbounds nuw %struct._tcm_permit_request_t, ptr %18, i32 0, i32 4
  store i32 1073741822, ptr %23, align 4, !tbaa !77
  %24 = getelementptr inbounds nuw %struct._tcm_permit_request_t, ptr %18, i32 0, i32 5
  %25 = load i32, ptr %24, align 8
  %26 = and i32 %25, -2
  %27 = or i32 %26, 0
  store i32 %27, ptr %24, align 8
  %28 = load i32, ptr %24, align 8
  %29 = and i32 %28, -3
  %30 = or i32 %29, 0
  store i32 %30, ptr %24, align 8
  %31 = load i32, ptr %24, align 8
  %32 = and i32 %31, -5
  %33 = or i32 %32, 0
  store i32 %33, ptr %24, align 8
  %34 = load i32, ptr %24, align 8
  %35 = and i32 %34, -9
  %36 = or i32 %35, 0
  store i32 %36, ptr %24, align 8
  %37 = load i32, ptr %24, align 8
  %38 = and i32 %37, 15
  %39 = or i32 %38, 0
  store i32 %39, ptr %24, align 8
  %40 = getelementptr inbounds nuw %struct._tcm_permit_request_t, ptr %18, i32 0, i32 6
  %41 = getelementptr inbounds i8, ptr %40, i64 4
  br label %42

42:                                               ; preds = %42, %3
  %43 = phi ptr [ %40, %3 ], [ %44, %42 ]
  store i8 0, ptr %43, align 1, !tbaa !78
  %44 = getelementptr inbounds i8, ptr %43, i64 1
  %45 = icmp eq ptr %44, %41
  br i1 %45, label %46, label %42

46:                                               ; preds = %42
  %47 = getelementptr inbounds nuw %"class.tbb::detail::r1::tcm_client", ptr %9, i32 0, i32 3
  store ptr null, ptr %47, align 8, !tbaa !22
  %48 = getelementptr inbounds nuw %"class.tbb::detail::r1::tcm_client", ptr %9, i32 0, i32 4
  invoke void @_ZN3tbb6detail2d15mutexC2Ev(ptr noundef nonnull align 1 dereferenceable(1) %48)
          to label %49 unwind label %52

49:                                               ; preds = %46
  %50 = getelementptr inbounds nuw %"class.tbb::detail::r1::tcm_client", ptr %9, i32 0, i32 5
  %51 = load ptr, ptr %5, align 8, !tbaa !44
  store ptr %51, ptr %50, align 8, !tbaa !44
  ret void

52:                                               ; preds = %46
  %53 = landingpad { ptr, i32 }
          cleanup
  %54 = extractvalue { ptr, i32 } %53, 0
  store ptr %54, ptr %7, align 8
  %55 = extractvalue { ptr, i32 } %53, 1
  store i32 %55, ptr %8, align 4
  call void @_ZN3tbb6detail2r19pm_clientD2Ev(ptr noundef nonnull align 8 dereferenceable(24) %9) #3
  br label %56

56:                                               ; preds = %52
  %57 = load ptr, ptr %7, align 8
  %58 = load i32, ptr %8, align 4
  %59 = insertvalue { ptr, i32 } poison, ptr %57, 0
  %60 = insertvalue { ptr, i32 } %59, i32 %58, 1
  resume { ptr, i32 } %60
}

; Function Attrs: mustprogress sspstrong uwtable
define noundef ptr @_ZN3tbb6detail2r111tcm_adaptor13create_clientERNS1_5arenaE(ptr noundef nonnull align 8 dereferenceable(24) %0, ptr noundef nonnull align 128 dereferenceable(768) %1) unnamed_addr #4 align 2 {
  %3 = alloca ptr, align 8
  %4 = alloca ptr, align 8
  store ptr %0, ptr %3, align 8, !tbaa !44
  store ptr %1, ptr %4, align 8, !tbaa !66
  %5 = load ptr, ptr %3, align 8
  %6 = call noundef ptr @_ZN3tbb6detail2r122cache_aligned_allocateEm(i64 noundef 112)
  %7 = load ptr, ptr %4, align 8, !tbaa !66
  call void @_ZN3tbb6detail2r110tcm_clientC2ERNS1_11tcm_adaptorERNS1_5arenaE(ptr noundef nonnull align 8 dereferenceable(112) %6, ptr noundef nonnull align 8 dereferenceable(24) %5, ptr noundef nonnull align 128 dereferenceable(768) %7)
  ret ptr %6
}