; Function Attrs: mustprogress sspstrong uwtable
define noundef ptr @_ZN3tbb6detail2r111tcm_adaptor13create_clientERNS1_5arenaE(ptr noundef nonnull align 8 dereferenceable(24) %0, ptr noundef nonnull align 128 dereferenceable(768) %1) unnamed_addr #3 align 2 personality ptr @__gxx_personality_v0 {
  %3 = tail call noundef ptr @_ZN3tbb6detail2r122cache_aligned_allocateEm(i64 noundef 112)
  %4 = getelementptr inbounds nuw i8, ptr %3, i64 8
  store ptr %1, ptr %4, align 8, !tbaa !60
  %5 = getelementptr inbounds nuw i8, ptr %3, i64 16
  store i32 0, ptr %5, align 8, !tbaa !61
  %6 = getelementptr inbounds nuw i8, ptr %3, i64 20
  store i32 0, ptr %6, align 4, !tbaa !62
  store ptr getelementptr inbounds nuw inrange(-16, 32) (i8, ptr @_ZTVN3tbb6detail2r110tcm_clientE, i64 16), ptr %3, align 8, !tbaa !41
  %7 = getelementptr inbounds nuw i8, ptr %3, i64 24
  store i32 -1, ptr %7, align 8, !tbaa !63
  %8 = getelementptr inbounds nuw i8, ptr %3, i64 28
  store i32 -1, ptr %8, align 4, !tbaa !64
  %9 = getelementptr inbounds nuw i8, ptr %3, i64 32
  store ptr null, ptr %9, align 8, !tbaa !65
  %10 = getelementptr inbounds nuw i8, ptr %3, i64 40
  store i32 -1, ptr %10, align 8, !tbaa !66
  %11 = getelementptr inbounds nuw i8, ptr %3, i64 44
  store i32 -1, ptr %11, align 4, !tbaa !67
  %12 = getelementptr inbounds nuw i8, ptr %3, i64 48
  store i32 -1, ptr %12, align 8, !tbaa !68
  %13 = getelementptr inbounds nuw i8, ptr %3, i64 56
  store i32 -1, ptr %13, align 8, !tbaa !69
  %14 = getelementptr inbounds nuw i8, ptr %3, i64 60
  store i32 -1, ptr %14, align 4, !tbaa !70
  %15 = getelementptr inbounds nuw i8, ptr %3, i64 64
  store ptr null, ptr %15, align 8, !tbaa !71
  %16 = getelementptr inbounds nuw i8, ptr %3, i64 72
  store i32 0, ptr %16, align 8, !tbaa !72
  %17 = getelementptr inbounds nuw i8, ptr %3, i64 76
  store i32 1073741822, ptr %17, align 4, !tbaa !73
  %18 = getelementptr inbounds nuw i8, ptr %3, i64 80
  %19 = getelementptr inbounds nuw i8, ptr %3, i64 104
  tail call void @llvm.memset.p0.i64(ptr noundef nonnull align 8 dereferenceable(17) %18, i8 0, i64 17, i1 false)
  store ptr %0, ptr %19, align 8, !tbaa !74
  ret ptr %3
}